; Function Attrs: nounwind uwtable
define ptr @Extra_zddPrimes(ptr noundef initializes((448, 452)) %0, ptr noundef %1) local_unnamed_addr #0 {
  %3 = getelementptr inbounds nuw i8, ptr %0, i64 448
  br label %4

4:                                                ; preds = %8, %2
  store i32 0, ptr %3, align 8, !tbaa !3
  %5 = tail call ptr @extraZddPrimes(ptr noundef %0, ptr noundef %1)
  %6 = load i32, ptr %3, align 8, !tbaa !3
  %7 = icmp eq i32 %6, 1
  br i1 %7, label %8, label %.thread

8:                                                ; preds = %4
  %puts = tail call i32 @puts(ptr nonnull dereferenceable(1) @str)
  %.pr = load i32, ptr %3, align 8, !tbaa !3
  %9 = icmp eq i32 %.pr, 1
  br i1 %9, label %4, label %.thread, !llvm.loop !62

.thread:                                          ; preds = %4, %8
  ret ptr %5
}